; Function Attrs: mustprogress nofree norecurse nosync nounwind willreturn memory(read, inaccessiblemem: none) uwtable
define hidden noundef ptr @_ZNK5model22get_uninterpreted_sortEj(ptr nocapture noundef nonnull readonly align 8 dereferenceable(160) %this, i32 noundef %idx) unnamed_addr #9 align 2 {
entry:
  %m_usorts = getelementptr inbounds i8, ptr %this, i64 96
  %0 = load ptr, ptr %m_usorts, align 8
  %idxprom.i = zext i32 %idx to i64
  %arrayidx.i = getelementptr inbounds ptr, ptr %0, i64 %idxprom.i
  %1 = load ptr, ptr %arrayidx.i, align 8
  ret ptr %1
}